target datalayout = "e-m:e-p270:32:32-p271:32:32-p272:64:64-i64:64-i128:128-f80:128-n8:16:32:64-S128"
target triple = "x86_64-pc-linux-gnu"

%struct.Vmem = type { ptr, i64, i64 }
%struct.ParseContext_ = type { %struct.TokenData, i32, %union.SourceSpan, %union.SourceSpan, ptr, %struct.Lexer }
%struct.TokenData = type { ptr, i64, %union.anon.86 }
%union.anon.86 = type { %struct.anon.89 }
%struct.anon.89 = type { %struct.Int128_, i8 }
%struct.Int128_ = type { i64, i64 }
%union.SourceSpan = type { i64 }
%struct.Lexer = type { ptr, ptr, ptr, ptr, i32, i32, ptr, ptr, ptr, %struct.TokenData, %union.SourceSpan, i32, i32 }
%struct.Expr_ = type { ptr, %union.SourceSpan, i16, %union.anon.30 }
%union.anon.30 = type { %struct.ExprAnySwitch }
%struct.ExprAnySwitch = type { i8, %union.anon.32 }
%union.anon.32 = type { %struct.anon.33 }
%struct.anon.33 = type { ptr, %union.SourceSpan, ptr }
%struct.anon.0 = type { i16, i8, i8, i32 }
%struct.ExprTernary = type { i32, i32, i32, i8 }

@poisoned_expr = external global ptr, align 8
@expr_arena = external global %struct.Vmem, align 8

; Function Attrs: nounwind uwtable
define internal i64 @extend_span_with_token(i64 %0, i64 %1) #0 {
  %3 = alloca %union.SourceSpan, align 8
  %4 = alloca %union.SourceSpan, align 8
  %5 = alloca %union.SourceSpan, align 8
  %6 = getelementptr inbounds %union.SourceSpan, ptr %4, i32 0, i32 0
  store i64 %0, ptr %6, align 8
  %7 = getelementptr inbounds %union.SourceSpan, ptr %5, i32 0, i32 0
  store i64 %1, ptr %7, align 8
  %8 = getelementptr inbounds %struct.anon.0, ptr %4, i32 0, i32 3
  %9 = load i32, ptr %8, align 4
  %10 = getelementptr inbounds %struct.anon.0, ptr %5, i32 0, i32 3
  %11 = load i32, ptr %10, align 4
  %12 = icmp ne i32 %9, %11
  br i1 %12, label %13, label %14

13:                                               ; preds = %2
  call void @llvm.memcpy.p0.p0.i64(ptr align 8 %3, ptr align 8 %4, i64 8, i1 false)
  br label %28

14:                                               ; preds = %2
  %15 = getelementptr inbounds %struct.anon.0, ptr %5, i32 0, i32 2
  %16 = load i8, ptr %15, align 1
  %17 = zext i8 %16 to i32
  %18 = getelementptr inbounds %struct.anon.0, ptr %5, i32 0, i32 1
  %19 = load i8, ptr %18, align 2
  %20 = zext i8 %19 to i32
  %21 = add nsw i32 %17, %20
  %22 = getelementptr inbounds %struct.anon.0, ptr %4, i32 0, i32 2
  %23 = load i8, ptr %22, align 1
  %24 = zext i8 %23 to i32
  %25 = sub nsw i32 %21, %24
  %26 = trunc i32 %25 to i8
  %27 = getelementptr inbounds %struct.anon.0, ptr %4, i32 0, i32 1
  store i8 %26, ptr %27, align 2
  call void @llvm.memcpy.p0.p0.i64(ptr align 8 %3, ptr align 8 %4, i64 8, i1 false)
  br label %28

28:                                               ; preds = %14, %13
  %29 = getelementptr inbounds %union.SourceSpan, ptr %3, i32 0, i32 0
  %30 = load i64, ptr %29, align 8
  ret i64 %30
}

; Function Attrs: nounwind uwtable
define internal i32 @exprid(ptr noundef %0) #0 {
  %2 = alloca ptr, align 8
  store ptr %0, ptr %2, align 8
  %3 = load ptr, ptr %2, align 8
  %4 = load ptr, ptr @expr_arena, align 8
  %5 = ptrtoint ptr %3 to i64
  %6 = ptrtoint ptr %4 to i64
  %7 = sub i64 %5, %6
  %8 = sdiv exact i64 %7, 56
  %9 = trunc i64 %8 to i32
  ret i32 %9
}

; Function Attrs: nounwind uwtable
define internal ptr @parse_elvis_expr(ptr noundef %0, ptr noundef %1) #0 {
  %3 = alloca i32, align 4
  %4 = alloca ptr, align 8
  %5 = alloca ptr, align 8
  %6 = alloca i32, align 4
  %7 = alloca ptr, align 8
  %8 = alloca ptr, align 8
  %9 = alloca ptr, align 8
  %10 = alloca ptr, align 8
  %11 = alloca ptr, align 8
  %12 = alloca ptr, align 8
  %13 = alloca %union.SourceSpan, align 8
  store ptr %0, ptr %9, align 8
  store ptr %1, ptr %10, align 8
  %14 = load ptr, ptr %10, align 8
  store i32 55, ptr %3, align 4
  store ptr %14, ptr %4, align 8
  %15 = load i32, ptr %3, align 4
  %16 = load ptr, ptr %4, align 8
  %17 = getelementptr inbounds %struct.Expr_, ptr %16, i32 0, i32 1
  %18 = load i64, ptr %17, align 8
  %19 = call ptr @expr_new(i32 noundef %15, i64 %18) #5
  store ptr %19, ptr %11, align 8
  %20 = load ptr, ptr %10, align 8
  %21 = call i32 @exprid(ptr noundef %20)
  %22 = load ptr, ptr %11, align 8
  %23 = getelementptr inbounds %struct.Expr_, ptr %22, i32 0, i32 3
  %24 = getelementptr inbounds %struct.ExprTernary, ptr %23, i32 0, i32 0
  store i32 %21, ptr %24, align 8
  %25 = load ptr, ptr %9, align 8
  store ptr %25, ptr %5, align 8
  store i32 38, ptr %6, align 4
  %26 = load ptr, ptr %5, align 8
  call void @advance(ptr noundef %26) #5
  %27 = load ptr, ptr %11, align 8
  %28 = getelementptr inbounds %struct.Expr_, ptr %27, i32 0, i32 3
  %29 = getelementptr inbounds %struct.ExprTernary, ptr %28, i32 0, i32 1
  store i32 0, ptr %29, align 4
  %30 = load ptr, ptr %9, align 8
  %31 = call ptr @parse_precedence(ptr noundef %30, i32 noundef 2)
  store ptr %31, ptr %12, align 8
  %32 = load ptr, ptr %12, align 8
  store ptr %32, ptr %7, align 8
  %33 = load ptr, ptr %7, align 8
  %34 = icmp eq ptr %33, null
  br i1 %34, label %42, label %35

35:                                               ; preds = %2
  %36 = load ptr, ptr %7, align 8
  %37 = getelementptr inbounds %struct.Expr_, ptr %36, i32 0, i32 2
  %38 = load i16, ptr %37, align 8
  %39 = and i16 %38, 255
  %40 = zext i16 %39 to i32
  %41 = icmp ne i32 %40, 0
  br label %42

42:                                               ; preds = %35, %2
  %43 = phi i1 [ true, %2 ], [ %41, %35 ]
  br i1 %43, label %46, label %44

44:                                               ; preds = %42
  %45 = load ptr, ptr @poisoned_expr, align 8
  store ptr %45, ptr %8, align 8
  br label %67

46:                                               ; preds = %42
  %47 = load ptr, ptr %12, align 8
  %48 = call i32 @exprid(ptr noundef %47)
  %49 = load ptr, ptr %11, align 8
  %50 = getelementptr inbounds %struct.Expr_, ptr %49, i32 0, i32 3
  %51 = getelementptr inbounds %struct.ExprTernary, ptr %50, i32 0, i32 2
  store i32 %48, ptr %51, align 8
  br label %52

52:                                               ; preds = %46
  %53 = load ptr, ptr %11, align 8
  %54 = getelementptr inbounds %struct.Expr_, ptr %53, i32 0, i32 1
  %55 = load ptr, ptr %11, align 8
  %56 = getelementptr inbounds %struct.Expr_, ptr %55, i32 0, i32 1
  %57 = load ptr, ptr %9, align 8
  %58 = getelementptr inbounds %struct.ParseContext_, ptr %57, i32 0, i32 3
  %59 = getelementptr inbounds %union.SourceSpan, ptr %56, i32 0, i32 0
  %60 = load i64, ptr %59, align 8
  %61 = getelementptr inbounds %union.SourceSpan, ptr %58, i32 0, i32 0
  %62 = load i64, ptr %61, align 8
  %63 = call i64 @extend_span_with_token(i64 %60, i64 %62)
  %64 = getelementptr inbounds %union.SourceSpan, ptr %13, i32 0, i32 0
  store i64 %63, ptr %64, align 8
  call void @llvm.memcpy.p0.p0.i64(ptr align 8 %54, ptr align 8 %13, i64 8, i1 false)
  br label %65

65:                                               ; preds = %52
  %66 = load ptr, ptr %11, align 8
  store ptr %66, ptr %8, align 8
  br label %67

67:                                               ; preds = %65, %44
  %68 = load ptr, ptr %8, align 8
  ret ptr %68
}