; Function Attrs: nounwind uwtable
define internal ptr @parse_elvis_expr(ptr noundef %0, ptr noundef %1) #1 {
  %3 = getelementptr inbounds i8, ptr %1, i64 8
  %4 = load i64, ptr %3, align 8
  %5 = tail call ptr @expr_new(i32 noundef 55, i64 %4) #8
  %6 = load ptr, ptr @expr_arena, align 8
  %7 = ptrtoint ptr %1 to i64
  %8 = ptrtoint ptr %6 to i64
  %9 = sub i64 %7, %8
  %10 = sdiv exact i64 %9, 56
  %11 = trunc i64 %10 to i32
  %12 = getelementptr inbounds i8, ptr %5, i64 24
  store i32 %11, ptr %12, align 8
  tail call void @advance(ptr noundef %0) #8
  %13 = getelementptr inbounds i8, ptr %5, i64 28
  store i32 0, ptr %13, align 4
  %14 = tail call fastcc ptr @parse_precedence(ptr noundef %0, i32 noundef 2)
  %15 = icmp eq ptr %14, null
  br i1 %15, label %.critedge, label %16

16:                                               ; preds = %2
  %17 = getelementptr inbounds i8, ptr %14, i64 16
  %18 = load i16, ptr %17, align 8
  %19 = and i16 %18, 255
  %.not = icmp eq i16 %19, 0
  br i1 %.not, label %21, label %.split

.split:                                           ; preds = %16
  %20 = ptrtoint ptr %14 to i64
  br label %.critedge

21:                                               ; preds = %16
  %22 = load ptr, ptr @poisoned_expr, align 8
  br label %40

.critedge:                                        ; preds = %2, %.split
  %.sink = phi i64 [ %20, %.split ], [ 0, %2 ]
  %.sink21 = load ptr, ptr @expr_arena, align 8
  %23 = ptrtoint ptr %.sink21 to i64
  %24 = sub i64 %.sink, %23
  %phi.call.in = sdiv exact i64 %24, 56
  %phi.call = trunc i64 %phi.call.in to i32
  %25 = getelementptr inbounds i8, ptr %5, i64 32
  store i32 %phi.call, ptr %25, align 8
  %26 = getelementptr inbounds i8, ptr %5, i64 8
  %27 = getelementptr inbounds i8, ptr %0, i64 56
  %28 = load i64, ptr %26, align 8
  %29 = load i64, ptr %27, align 8
  %.not.unshifted.i = xor i64 %29, %28
  %.not.i = icmp ult i64 %.not.unshifted.i, 4294967296
  br i1 %.not.i, label %31, label %30

30:                                               ; preds = %.critedge
  %.sroa.33.0.extract.shift.i = lshr i64 %28, 16
  br label %extend_span_with_token.exit

31:                                               ; preds = %.critedge
  %.sroa.4.0.extract.shift.i = lshr i64 %28, 24
  %32 = trunc i64 %29 to i32
  %33 = lshr i32 %32, 24
  %34 = lshr i32 %32, 16
  %35 = trunc i64 %.sroa.4.0.extract.shift.i to i32
  %36 = sub i32 %34, %35
  %37 = add i32 %36, %33
  %38 = zext i32 %37 to i64
  br label %extend_span_with_token.exit

extend_span_with_token.exit:                      ; preds = %30, %31
  %.sroa.311.0.i = phi i64 [ %.sroa.33.0.extract.shift.i, %30 ], [ %38, %31 ]
  %.sroa.311.0.insert.ext.i = shl nuw i64 %.sroa.311.0.i, 16
  %.sroa.311.0.insert.shift.i = and i64 %.sroa.311.0.insert.ext.i, 16711680
  %39 = and i64 %28, -16711681
  %.sroa.010.0.insert.insert.i = or disjoint i64 %.sroa.311.0.insert.shift.i, %39
  store i64 %.sroa.010.0.insert.insert.i, ptr %26, align 8
  br label %40

40:                                               ; preds = %extend_span_with_token.exit, %21
  %.0 = phi ptr [ %5, %extend_span_with_token.exit ], [ %22, %21 ]
  ret ptr %.0
}